; Function Attrs: nounwind uwtable
define void @glfwSetCursor(ptr noundef %0, ptr noundef %1) local_unnamed_addr #0 {
  %3 = load i32, ptr @_glfw, align 8, !tbaa !170
  %.not = icmp eq i32 %3, 0
  br i1 %.not, label %4, label %5

4:                                                ; preds = %2
  tail call void (i32, ptr, ...) @_glfwInputError(i32 noundef 65537, ptr noundef null) #12
  br label %8

5:                                                ; preds = %2
  %6 = getelementptr inbounds nuw i8, ptr %0, i64 88
  store ptr %1, ptr %6, align 8, !tbaa !192
  %7 = load ptr, ptr getelementptr inbounds nuw (i8, ptr @_glfw, i64 128), align 8, !tbaa !193
  tail call void %7(ptr noundef %0, ptr noundef %1) #12
  br label %8

8:                                                ; preds = %5, %4
  ret void
}